target datalayout = "e-m:e-p270:32:32-p271:32:32-p272:64:64-i64:64-i128:128-f80:128-n8:16:32:64-S128"
target triple = "x86_64-pc-linux-gnu"

%"class.zxing::UnicomBlock" = type { %"class.zxing::Counted.base", i32, i32, i32, i8, %"class.std::vector", %"class.std::vector", %"class.std::vector.0", %"class.std::vector.0", %"class.std::vector.0", %"class.zxing::Ref" }
%"class.zxing::Counted.base" = type <{ ptr, i32 }>
%"class.std::vector" = type { %"struct.std::_Vector_base" }
%"struct.std::_Vector_base" = type { %"struct.std::_Vector_base<unsigned int, std::allocator<unsigned int>>::_Vector_impl" }
%"struct.std::_Vector_base<unsigned int, std::allocator<unsigned int>>::_Vector_impl" = type { %"struct.std::_Vector_base<unsigned int, std::allocator<unsigned int>>::_Vector_impl_data" }
%"struct.std::_Vector_base<unsigned int, std::allocator<unsigned int>>::_Vector_impl_data" = type { ptr, ptr, ptr }
%"class.std::vector.0" = type { %"struct.std::_Vector_base.1" }
%"struct.std::_Vector_base.1" = type { %"struct.std::_Vector_base<int, std::allocator<int>>::_Vector_impl" }
%"struct.std::_Vector_base<int, std::allocator<int>>::_Vector_impl" = type { %"struct.std::_Vector_base<int, std::allocator<int>>::_Vector_impl_data" }
%"struct.std::_Vector_base<int, std::allocator<int>>::_Vector_impl_data" = type { ptr, ptr, ptr }
%"class.zxing::Ref" = type { ptr }

; Function Attrs: mustprogress nounwind uwtable
define linkonce_odr hidden noundef nonnull align 4 dereferenceable(4) ptr @_ZNSt6vectorIiSaIiEEixEm(ptr noundef nonnull align 8 dereferenceable(24) %0, i64 noundef %1) #1 comdat align 2 {
  %3 = alloca ptr, align 8
  %4 = alloca i64, align 8
  store ptr %0, ptr %3, align 8, !tbaa !34
  store i64 %1, ptr %4, align 8, !tbaa !48
  %5 = load ptr, ptr %3, align 8
  %6 = getelementptr inbounds nuw %"struct.std::_Vector_base.1", ptr %5, i32 0, i32 0
  %7 = getelementptr inbounds nuw %"struct.std::_Vector_base<int, std::allocator<int>>::_Vector_impl_data", ptr %6, i32 0, i32 0
  %8 = load ptr, ptr %7, align 8, !tbaa !40
  %9 = load i64, ptr %4, align 8, !tbaa !48
  %10 = getelementptr inbounds nuw i32, ptr %8, i64 %9
  ret ptr %10
}

; Function Attrs: mustprogress nounwind uwtable
define linkonce_odr hidden noundef nonnull align 4 dereferenceable(4) ptr @_ZNSt6vectorIjSaIjEEixEm(ptr noundef nonnull align 8 dereferenceable(24) %0, i64 noundef %1) #1 comdat align 2 {
  %3 = alloca ptr, align 8
  %4 = alloca i64, align 8
  store ptr %0, ptr %3, align 8, !tbaa !32
  store i64 %1, ptr %4, align 8, !tbaa !48
  %5 = load ptr, ptr %3, align 8
  %6 = getelementptr inbounds nuw %"struct.std::_Vector_base", ptr %5, i32 0, i32 0
  %7 = getelementptr inbounds nuw %"struct.std::_Vector_base<unsigned int, std::allocator<unsigned int>>::_Vector_impl_data", ptr %6, i32 0, i32 0
  %8 = load ptr, ptr %7, align 8, !tbaa !42
  %9 = load i64, ptr %4, align 8, !tbaa !48
  %10 = getelementptr inbounds nuw i32, ptr %8, i64 %9
  ret ptr %10
}

; Function Attrs: mustprogress uwtable
define hidden noundef i32 @_ZN5zxing11UnicomBlock11GetMaxPointEiiRiS1_(ptr noundef nonnull align 8 dereferenceable(160) %0, i32 noundef %1, i32 noundef %2, ptr noundef nonnull align 4 dereferenceable(4) %3, ptr noundef nonnull align 4 dereferenceable(4) %4) #0 align 2 {
  %6 = alloca i32, align 4
  %7 = alloca ptr, align 8
  %8 = alloca i32, align 4
  %9 = alloca i32, align 4
  %10 = alloca ptr, align 8
  %11 = alloca ptr, align 8
  store ptr %0, ptr %7, align 8, !tbaa !3
  store i32 %1, ptr %8, align 4, !tbaa !8
  store i32 %2, ptr %9, align 4, !tbaa !8
  store ptr %3, ptr %10, align 8, !tbaa !50
  store ptr %4, ptr %11, align 8, !tbaa !50
  %12 = load ptr, ptr %7, align 8
  %13 = load i32, ptr %8, align 4, !tbaa !8
  %14 = getelementptr inbounds nuw %"class.zxing::UnicomBlock", ptr %12, i32 0, i32 1
  %15 = load i32, ptr %14, align 4, !tbaa !12
  %16 = icmp sge i32 %13, %15
  br i1 %16, label %22, label %17

17:                                               ; preds = %5
  %18 = load i32, ptr %9, align 4, !tbaa !8
  %19 = getelementptr inbounds nuw %"class.zxing::UnicomBlock", ptr %12, i32 0, i32 2
  %20 = load i32, ptr %19, align 8, !tbaa !27
  %21 = icmp sge i32 %18, %20
  br i1 %21, label %22, label %23

22:                                               ; preds = %17, %5
  store i32 -1, ptr %6, align 4
  br label %87

23:                                               ; preds = %17
  %24 = getelementptr inbounds nuw %"class.zxing::UnicomBlock", ptr %12, i32 0, i32 5
  %25 = load i32, ptr %8, align 4, !tbaa !8
  %26 = getelementptr inbounds nuw %"class.zxing::UnicomBlock", ptr %12, i32 0, i32 2
  %27 = load i32, ptr %26, align 8, !tbaa !27
  %28 = mul nsw i32 %25, %27
  %29 = load i32, ptr %9, align 4, !tbaa !8
  %30 = add nsw i32 %28, %29
  %31 = sext i32 %30 to i64
  %32 = call noundef nonnull align 4 dereferenceable(4) ptr @_ZNSt6vectorIjSaIjEEixEm(ptr noundef nonnull align 8 dereferenceable(24) %24, i64 noundef %31) #12
  %33 = load i32, ptr %32, align 4, !tbaa !8
  %34 = icmp ne i32 %33, 0
  br i1 %34, label %35, label %60

35:                                               ; preds = %23
  %36 = getelementptr inbounds nuw %"class.zxing::UnicomBlock", ptr %12, i32 0, i32 8
  %37 = load i32, ptr %8, align 4, !tbaa !8
  %38 = getelementptr inbounds nuw %"class.zxing::UnicomBlock", ptr %12, i32 0, i32 2
  %39 = load i32, ptr %38, align 8, !tbaa !27
  %40 = mul nsw i32 %37, %39
  %41 = load i32, ptr %9, align 4, !tbaa !8
  %42 = add nsw i32 %40, %41
  %43 = sext i32 %42 to i64
  %44 = call noundef nonnull align 4 dereferenceable(4) ptr @_ZNSt6vectorIiSaIiEEixEm(ptr noundef nonnull align 8 dereferenceable(24) %36, i64 noundef %43) #12
  %45 = load i32, ptr %44, align 4, !tbaa !8
  %46 = ashr i32 %45, 16
  %47 = load ptr, ptr %10, align 8, !tbaa !50
  store i32 %46, ptr %47, align 4, !tbaa !8
  %48 = getelementptr inbounds nuw %"class.zxing::UnicomBlock", ptr %12, i32 0, i32 8
  %49 = load i32, ptr %8, align 4, !tbaa !8
  %50 = getelementptr inbounds nuw %"class.zxing::UnicomBlock", ptr %12, i32 0, i32 2
  %51 = load i32, ptr %50, align 8, !tbaa !27
  %52 = mul nsw i32 %49, %51
  %53 = load i32, ptr %9, align 4, !tbaa !8
  %54 = add nsw i32 %52, %53
  %55 = sext i32 %54 to i64
  %56 = call noundef nonnull align 4 dereferenceable(4) ptr @_ZNSt6vectorIiSaIiEEixEm(ptr noundef nonnull align 8 dereferenceable(24) %48, i64 noundef %55) #12
  %57 = load i32, ptr %56, align 4, !tbaa !8
  %58 = and i32 %57, 65535
  %59 = load ptr, ptr %11, align 8, !tbaa !50
  store i32 %58, ptr %59, align 4, !tbaa !8
  store i32 0, ptr %6, align 4
  br label %87

60:                                               ; preds = %23
  %61 = load i32, ptr %8, align 4, !tbaa !8
  %62 = load i32, ptr %9, align 4, !tbaa !8
  call void @_ZN5zxing11UnicomBlock3BfsEii(ptr noundef nonnull align 8 dereferenceable(160) %12, i32 noundef %61, i32 noundef %62)
  %63 = getelementptr inbounds nuw %"class.zxing::UnicomBlock", ptr %12, i32 0, i32 8
  %64 = load i32, ptr %8, align 4, !tbaa !8
  %65 = getelementptr inbounds nuw %"class.zxing::UnicomBlock", ptr %12, i32 0, i32 2
  %66 = load i32, ptr %65, align 8, !tbaa !27
  %67 = mul nsw i32 %64, %66
  %68 = load i32, ptr %9, align 4, !tbaa !8
  %69 = add nsw i32 %67, %68
  %70 = sext i32 %69 to i64
  %71 = call noundef nonnull align 4 dereferenceable(4) ptr @_ZNSt6vectorIiSaIiEEixEm(ptr noundef nonnull align 8 dereferenceable(24) %63, i64 noundef %70) #12
  %72 = load i32, ptr %71, align 4, !tbaa !8
  %73 = ashr i32 %72, 16
  %74 = load ptr, ptr %10, align 8, !tbaa !50
  store i32 %73, ptr %74, align 4, !tbaa !8
  %75 = getelementptr inbounds nuw %"class.zxing::UnicomBlock", ptr %12, i32 0, i32 8
  %76 = load i32, ptr %8, align 4, !tbaa !8
  %77 = getelementptr inbounds nuw %"class.zxing::UnicomBlock", ptr %12, i32 0, i32 2
  %78 = load i32, ptr %77, align 8, !tbaa !27
  %79 = mul nsw i32 %76, %78
  %80 = load i32, ptr %9, align 4, !tbaa !8
  %81 = add nsw i32 %79, %80
  %82 = sext i32 %81 to i64
  %83 = call noundef nonnull align 4 dereferenceable(4) ptr @_ZNSt6vectorIiSaIiEEixEm(ptr noundef nonnull align 8 dereferenceable(24) %75, i64 noundef %82) #12
  %84 = load i32, ptr %83, align 4, !tbaa !8
  %85 = and i32 %84, 65535
  %86 = load ptr, ptr %11, align 8, !tbaa !50
  store i32 %85, ptr %86, align 4, !tbaa !8
  store i32 0, ptr %6, align 4
  br label %87

87:                                               ; preds = %60, %35, %22
  %88 = load i32, ptr %6, align 4
  ret i32 %88
}